; Function Attrs: mustprogress nofree norecurse nosync nounwind willreturn memory(readwrite, inaccessiblemem: none) uwtable
define dso_local void @_ZN4Luau7CodeGen3A6418AssemblyBuilderA6411patchOffsetEjiNS2_5Patch4KindE(ptr noundef nonnull align 8 captures(none) dereferenceable(176) %0, i32 noundef %1, i32 noundef %2, i32 noundef %3) local_unnamed_addr #5 align 2 {
  %5 = icmp eq i32 %3, 0
  %6 = icmp eq i32 %3, 1
  %7 = select i1 %5, i32 67108864, i32 16384
  %8 = select i1 %6, i32 524288, i32 %7
  %9 = lshr exact i32 %8, 1
  %10 = sub nsw i32 0, %9
  %11 = icmp sgt i32 %2, %10
  %12 = icmp slt i32 %2, %9
  %or.cond = and i1 %11, %12
  br i1 %or.cond, label %13, label %24

13:                                               ; preds = %4
  %14 = select i1 %5, i32 0, i32 5
  %15 = add nsw i32 %8, -1
  %16 = and i32 %15, %2
  %17 = shl nuw nsw i32 %16, %14
  %18 = getelementptr inbounds nuw i8, ptr %0, i64 24
  %19 = zext i32 %1 to i64
  %20 = load ptr, ptr %18, align 8, !tbaa !38
  %21 = getelementptr inbounds nuw i32, ptr %20, i64 %19
  %22 = load i32, ptr %21, align 4, !tbaa !48
  %23 = or i32 %22, %17
  store i32 %23, ptr %21, align 4, !tbaa !48
  br label %26

24:                                               ; preds = %4
  %25 = getelementptr inbounds nuw i8, ptr %0, i64 145
  store i8 1, ptr %25, align 1, !tbaa !50
  br label %26

26:                                               ; preds = %24, %13
  ret void
}